target datalayout = "e-m:e-p270:32:32-p271:32:32-p272:64:64-i64:64-i128:128-f80:128-n8:16:32:64-S128"
target triple = "x86_64-pc-linux-gnu"

%struct.Inta_Man_t_ = type { ptr, ptr, i32, i32, i32, i32, i32, i32, i32, ptr, ptr, ptr, ptr, ptr, ptr, ptr, ptr, i32, i32, ptr, ptr, ptr, i64, i64, i64 }
%struct.Vec_Int_t_ = type { i32, i32, ptr }

; Function Attrs: inlinehint nounwind uwtable
define internal void @Vec_IntFree(ptr noundef %0) #4 {
  %2 = alloca ptr, align 8
  store ptr %0, ptr %2, align 8, !tbaa !23
  %3 = load ptr, ptr %2, align 8, !tbaa !23
  %4 = getelementptr inbounds nuw %struct.Vec_Int_t_, ptr %3, i32 0, i32 2
  %5 = load ptr, ptr %4, align 8, !tbaa !27
  %6 = icmp ne ptr %5, null
  br i1 %6, label %7, label %13

7:                                                ; preds = %1
  %8 = load ptr, ptr %2, align 8, !tbaa !23
  %9 = getelementptr inbounds nuw %struct.Vec_Int_t_, ptr %8, i32 0, i32 2
  %10 = load ptr, ptr %9, align 8, !tbaa !27
  call void @free(ptr noundef %10) #10
  %11 = load ptr, ptr %2, align 8, !tbaa !23
  %12 = getelementptr inbounds nuw %struct.Vec_Int_t_, ptr %11, i32 0, i32 2
  store ptr null, ptr %12, align 8, !tbaa !27
  br label %14

13:                                               ; preds = %1
  br label %14

14:                                               ; preds = %13, %7
  %15 = load ptr, ptr %2, align 8, !tbaa !23
  %16 = icmp ne ptr %15, null
  br i1 %16, label %17, label %19

17:                                               ; preds = %14
  %18 = load ptr, ptr %2, align 8, !tbaa !23
  call void @free(ptr noundef %18) #10
  store ptr null, ptr %2, align 8, !tbaa !23
  br label %20

19:                                               ; preds = %14
  br label %20

20:                                               ; preds = %19, %17
  ret void
}

; Function Attrs: nounwind uwtable
define void @Inta_ManFree(ptr noundef %0) #0 {
  %2 = alloca ptr, align 8
  store ptr %0, ptr %2, align 8, !tbaa !3
  %3 = load ptr, ptr %2, align 8, !tbaa !3
  %4 = getelementptr inbounds nuw %struct.Inta_Man_t_, ptr %3, i32 0, i32 16
  %5 = load ptr, ptr %4, align 8, !tbaa !58
  %6 = icmp ne ptr %5, null
  br i1 %6, label %7, label %13

7:                                                ; preds = %1
  %8 = load ptr, ptr %2, align 8, !tbaa !3
  %9 = getelementptr inbounds nuw %struct.Inta_Man_t_, ptr %8, i32 0, i32 16
  %10 = load ptr, ptr %9, align 8, !tbaa !58
  call void @free(ptr noundef %10) #10
  %11 = load ptr, ptr %2, align 8, !tbaa !3
  %12 = getelementptr inbounds nuw %struct.Inta_Man_t_, ptr %11, i32 0, i32 16
  store ptr null, ptr %12, align 8, !tbaa !58
  br label %14

13:                                               ; preds = %1
  br label %14

14:                                               ; preds = %13, %7
  %15 = load ptr, ptr %2, align 8, !tbaa !3
  %16 = getelementptr inbounds nuw %struct.Inta_Man_t_, ptr %15, i32 0, i32 19
  %17 = load ptr, ptr %16, align 8, !tbaa !56
  %18 = icmp ne ptr %17, null
  br i1 %18, label %19, label %25

19:                                               ; preds = %14
  %20 = load ptr, ptr %2, align 8, !tbaa !3
  %21 = getelementptr inbounds nuw %struct.Inta_Man_t_, ptr %20, i32 0, i32 19
  %22 = load ptr, ptr %21, align 8, !tbaa !56
  call void @free(ptr noundef %22) #10
  %23 = load ptr, ptr %2, align 8, !tbaa !3
  %24 = getelementptr inbounds nuw %struct.Inta_Man_t_, ptr %23, i32 0, i32 19
  store ptr null, ptr %24, align 8, !tbaa !56
  br label %26

25:                                               ; preds = %14
  br label %26

26:                                               ; preds = %25, %19
  %27 = load ptr, ptr %2, align 8, !tbaa !3
  %28 = getelementptr inbounds nuw %struct.Inta_Man_t_, ptr %27, i32 0, i32 9
  %29 = load ptr, ptr %28, align 8, !tbaa !48
  %30 = icmp ne ptr %29, null
  br i1 %30, label %31, label %37

31:                                               ; preds = %26
  %32 = load ptr, ptr %2, align 8, !tbaa !3
  %33 = getelementptr inbounds nuw %struct.Inta_Man_t_, ptr %32, i32 0, i32 9
  %34 = load ptr, ptr %33, align 8, !tbaa !48
  call void @free(ptr noundef %34) #10
  %35 = load ptr, ptr %2, align 8, !tbaa !3
  %36 = getelementptr inbounds nuw %struct.Inta_Man_t_, ptr %35, i32 0, i32 9
  store ptr null, ptr %36, align 8, !tbaa !48
  br label %38

37:                                               ; preds = %26
  br label %38

38:                                               ; preds = %37, %31
  %39 = load ptr, ptr %2, align 8, !tbaa !3
  %40 = getelementptr inbounds nuw %struct.Inta_Man_t_, ptr %39, i32 0, i32 10
  %41 = load ptr, ptr %40, align 8, !tbaa !49
  %42 = icmp ne ptr %41, null
  br i1 %42, label %43, label %49

43:                                               ; preds = %38
  %44 = load ptr, ptr %2, align 8, !tbaa !3
  %45 = getelementptr inbounds nuw %struct.Inta_Man_t_, ptr %44, i32 0, i32 10
  %46 = load ptr, ptr %45, align 8, !tbaa !49
  call void @free(ptr noundef %46) #10
  %47 = load ptr, ptr %2, align 8, !tbaa !3
  %48 = getelementptr inbounds nuw %struct.Inta_Man_t_, ptr %47, i32 0, i32 10
  store ptr null, ptr %48, align 8, !tbaa !49
  br label %50

49:                                               ; preds = %38
  br label %50

50:                                               ; preds = %49, %43
  %51 = load ptr, ptr %2, align 8, !tbaa !3
  %52 = getelementptr inbounds nuw %struct.Inta_Man_t_, ptr %51, i32 0, i32 11
  %53 = load ptr, ptr %52, align 8, !tbaa !50
  %54 = icmp ne ptr %53, null
  br i1 %54, label %55, label %61

55:                                               ; preds = %50
  %56 = load ptr, ptr %2, align 8, !tbaa !3
  %57 = getelementptr inbounds nuw %struct.Inta_Man_t_, ptr %56, i32 0, i32 11
  %58 = load ptr, ptr %57, align 8, !tbaa !50
  call void @free(ptr noundef %58) #10
  %59 = load ptr, ptr %2, align 8, !tbaa !3
  %60 = getelementptr inbounds nuw %struct.Inta_Man_t_, ptr %59, i32 0, i32 11
  store ptr null, ptr %60, align 8, !tbaa !50
  br label %62

61:                                               ; preds = %50
  br label %62

62:                                               ; preds = %61, %55
  %63 = load ptr, ptr %2, align 8, !tbaa !3
  %64 = getelementptr inbounds nuw %struct.Inta_Man_t_, ptr %63, i32 0, i32 15
  %65 = load ptr, ptr %64, align 8, !tbaa !33
  %66 = icmp ne ptr %65, null
  br i1 %66, label %67, label %73

67:                                               ; preds = %62
  %68 = load ptr, ptr %2, align 8, !tbaa !3
  %69 = getelementptr inbounds nuw %struct.Inta_Man_t_, ptr %68, i32 0, i32 15
  %70 = load ptr, ptr %69, align 8, !tbaa !33
  call void @free(ptr noundef %70) #10
  %71 = load ptr, ptr %2, align 8, !tbaa !3
  %72 = getelementptr inbounds nuw %struct.Inta_Man_t_, ptr %71, i32 0, i32 15
  store ptr null, ptr %72, align 8, !tbaa !33
  br label %74

73:                                               ; preds = %62
  br label %74

74:                                               ; preds = %73, %67
  %75 = load ptr, ptr %2, align 8, !tbaa !3
  %76 = getelementptr inbounds nuw %struct.Inta_Man_t_, ptr %75, i32 0, i32 12
  %77 = load ptr, ptr %76, align 8, !tbaa !51
  %78 = icmp ne ptr %77, null
  br i1 %78, label %79, label %85

79:                                               ; preds = %74
  %80 = load ptr, ptr %2, align 8, !tbaa !3
  %81 = getelementptr inbounds nuw %struct.Inta_Man_t_, ptr %80, i32 0, i32 12
  %82 = load ptr, ptr %81, align 8, !tbaa !51
  call void @free(ptr noundef %82) #10
  %83 = load ptr, ptr %2, align 8, !tbaa !3
  %84 = getelementptr inbounds nuw %struct.Inta_Man_t_, ptr %83, i32 0, i32 12
  store ptr null, ptr %84, align 8, !tbaa !51
  br label %86

85:                                               ; preds = %74
  br label %86

86:                                               ; preds = %85, %79
  %87 = load ptr, ptr %2, align 8, !tbaa !3
  %88 = getelementptr inbounds nuw %struct.Inta_Man_t_, ptr %87, i32 0, i32 13
  %89 = load ptr, ptr %88, align 8, !tbaa !52
  %90 = icmp ne ptr %89, null
  br i1 %90, label %91, label %97

91:                                               ; preds = %86
  %92 = load ptr, ptr %2, align 8, !tbaa !3
  %93 = getelementptr inbounds nuw %struct.Inta_Man_t_, ptr %92, i32 0, i32 13
  %94 = load ptr, ptr %93, align 8, !tbaa !52
  call void @free(ptr noundef %94) #10
  %95 = load ptr, ptr %2, align 8, !tbaa !3
  %96 = getelementptr inbounds nuw %struct.Inta_Man_t_, ptr %95, i32 0, i32 13
  store ptr null, ptr %96, align 8, !tbaa !52
  br label %98

97:                                               ; preds = %86
  br label %98

98:                                               ; preds = %97, %91
  %99 = load ptr, ptr %2, align 8, !tbaa !3
  %100 = getelementptr inbounds nuw %struct.Inta_Man_t_, ptr %99, i32 0, i32 21
  %101 = load ptr, ptr %100, align 8, !tbaa !8
  call void @Vec_IntFree(ptr noundef %101)
  %102 = load ptr, ptr %2, align 8, !tbaa !3
  %103 = icmp ne ptr %102, null
  br i1 %103, label %104, label %106

104:                                              ; preds = %98
  %105 = load ptr, ptr %2, align 8, !tbaa !3
  call void @free(ptr noundef %105) #10
  store ptr null, ptr %2, align 8, !tbaa !3
  br label %107

106:                                              ; preds = %98
  br label %107

107:                                              ; preds = %106, %104
  ret void
}