; Function Attrs: mustprogress nounwind willreturn uwtable
define void @Inta_ManFree(ptr noundef captures(none) %0) local_unnamed_addr #7 {
  %2 = getelementptr inbounds nuw i8, ptr %0, i64 104
  %3 = load ptr, ptr %2, align 8, !tbaa !50
  %.not = icmp eq ptr %3, null
  br i1 %.not, label %5, label %4

4:                                                ; preds = %1
  tail call void @free(ptr noundef nonnull %3) #20
  store ptr null, ptr %2, align 8, !tbaa !50
  br label %5

5:                                                ; preds = %1, %4
  %6 = getelementptr inbounds nuw i8, ptr %0, i64 120
  %7 = load ptr, ptr %6, align 8, !tbaa !47
  %.not35 = icmp eq ptr %7, null
  br i1 %.not35, label %9, label %8

8:                                                ; preds = %5
  tail call void @free(ptr noundef nonnull %7) #20
  store ptr null, ptr %6, align 8, !tbaa !47
  br label %9

9:                                                ; preds = %5, %8
  %10 = getelementptr inbounds nuw i8, ptr %0, i64 48
  %11 = load ptr, ptr %10, align 8, !tbaa !40
  %.not36 = icmp eq ptr %11, null
  br i1 %.not36, label %13, label %12

12:                                               ; preds = %9
  tail call void @free(ptr noundef nonnull %11) #20
  store ptr null, ptr %10, align 8, !tbaa !40
  br label %13

13:                                               ; preds = %9, %12
  %14 = getelementptr inbounds nuw i8, ptr %0, i64 56
  %15 = load ptr, ptr %14, align 8, !tbaa !41
  %.not37 = icmp eq ptr %15, null
  br i1 %.not37, label %17, label %16

16:                                               ; preds = %13
  tail call void @free(ptr noundef nonnull %15) #20
  store ptr null, ptr %14, align 8, !tbaa !41
  br label %17

17:                                               ; preds = %13, %16
  %18 = getelementptr inbounds nuw i8, ptr %0, i64 64
  %19 = load ptr, ptr %18, align 8, !tbaa !42
  %.not38 = icmp eq ptr %19, null
  br i1 %.not38, label %21, label %20

20:                                               ; preds = %17
  tail call void @free(ptr noundef nonnull %19) #20
  store ptr null, ptr %18, align 8, !tbaa !42
  br label %21

21:                                               ; preds = %17, %20
  %22 = getelementptr inbounds nuw i8, ptr %0, i64 96
  %23 = load ptr, ptr %22, align 8, !tbaa !28
  %.not39 = icmp eq ptr %23, null
  br i1 %.not39, label %25, label %24

24:                                               ; preds = %21
  tail call void @free(ptr noundef nonnull %23) #20
  store ptr null, ptr %22, align 8, !tbaa !28
  br label %25

25:                                               ; preds = %21, %24
  %26 = getelementptr inbounds nuw i8, ptr %0, i64 72
  %27 = load ptr, ptr %26, align 8, !tbaa !43
  %.not40 = icmp eq ptr %27, null
  br i1 %.not40, label %29, label %28

28:                                               ; preds = %25
  tail call void @free(ptr noundef nonnull %27) #20
  store ptr null, ptr %26, align 8, !tbaa !43
  br label %29

29:                                               ; preds = %25, %28
  %30 = getelementptr inbounds nuw i8, ptr %0, i64 80
  %31 = load ptr, ptr %30, align 8, !tbaa !44
  %.not41 = icmp eq ptr %31, null
  br i1 %.not41, label %33, label %32

32:                                               ; preds = %29
  tail call void @free(ptr noundef nonnull %31) #20
  store ptr null, ptr %30, align 8, !tbaa !44
  br label %33

33:                                               ; preds = %29, %32
  %34 = getelementptr inbounds nuw i8, ptr %0, i64 136
  %35 = load ptr, ptr %34, align 8, !tbaa !12
  %36 = getelementptr inbounds nuw i8, ptr %35, i64 8
  %37 = load ptr, ptr %36, align 8, !tbaa !11
  %.not.i = icmp eq ptr %37, null
  br i1 %.not.i, label %39, label %38

38:                                               ; preds = %33
  tail call void @free(ptr noundef nonnull %37) #20
  br label %39

39:                                               ; preds = %33, %38
  tail call void @free(ptr noundef nonnull %35) #20
  tail call void @free(ptr noundef nonnull %0) #20
  ret void
}